; ModuleID = 'source-C-CXX/56/2360.c'
source_filename = "source-C-CXX/56/2360.c"
target datalayout = "e-m:e-p270:32:32-p271:32:32-p272:64:64-i64:64-f80:128-n8:16:32:64-S128"
target triple = "x86_64-pc-linux-gnu"

@.str = private unnamed_addr constant [3 x i8] c"%d\00", align 1
@.str.1 = private unnamed_addr constant [3 x i8] c"%s\00", align 1

; Function Attrs: nofree nounwind sspstrong uwtable
define dso_local i32 @main(i32 %0, i8** nocapture readnone %1) local_unnamed_addr #0 {
  %3 = alloca i32, align 4
  %4 = alloca [20 x i8], align 16
  %5 = bitcast i32* %3 to i8*
  call void @llvm.lifetime.start.p0i8(i64 4, i8* nonnull %5) #5
  %6 = getelementptr inbounds [20 x i8], [20 x i8]* %4, i64 0, i64 0
  call void @llvm.lifetime.start.p0i8(i64 20, i8* nonnull %6) #5
  %7 = call i32 (i8*, ...) @__isoc99_scanf(i8* getelementptr inbounds ([3 x i8], [3 x i8]* @.str, i64 0, i64 0), i32* nonnull %3)
  %8 = load i32, i32* %3, align 4, !tbaa !5
  %9 = icmp sgt i32 %8, 0
  br i1 %9, label %10, label %76

10:                                               ; preds = %2, %71
  %11 = phi i32 [ %73, %71 ], [ 0, %2 ]
  %12 = call i32 (i8*, ...) @__isoc99_scanf(i8* getelementptr inbounds ([3 x i8], [3 x i8]* @.str.1, i64 0, i64 0), i8* nonnull %6)
  %13 = call i64 @strlen(i8* noundef nonnull %6) #6
  %14 = trunc i64 %13 to i32
  %15 = shl i64 %13, 32
  %16 = add i64 %15, -4294967296
  %17 = ashr exact i64 %16, 32
  %18 = getelementptr inbounds [20 x i8], [20 x i8]* %4, i64 0, i64 %17
  %19 = load i8, i8* %18, align 1, !tbaa !9
  switch i8 %19, label %58 [
    i8 121, label %20
    i8 114, label %39
  ]

20:                                               ; preds = %10
  %21 = add i64 %15, -8589934592
  %22 = ashr exact i64 %21, 32
  %23 = getelementptr inbounds [20 x i8], [20 x i8]* %4, i64 0, i64 %22
  %24 = load i8, i8* %23, align 1, !tbaa !9
  %25 = icmp eq i8 %24, 108
  br i1 %25, label %26, label %58

26:                                               ; preds = %20
  %27 = icmp slt i32 %14, 3
  br i1 %27, label %71, label %28

28:                                               ; preds = %26
  %29 = add i64 %13, 4294967294
  %30 = and i64 %29, 4294967295
  br label %31

31:                                               ; preds = %28, %31
  %32 = phi i64 [ 0, %28 ], [ %37, %31 ]
  %33 = getelementptr inbounds [20 x i8], [20 x i8]* %4, i64 0, i64 %32
  %34 = load i8, i8* %33, align 1, !tbaa !9
  %35 = sext i8 %34 to i32
  %36 = call i32 @putchar(i32 %35)
  %37 = add nuw nsw i64 %32, 1
  %38 = icmp eq i64 %37, %30
  br i1 %38, label %71, label %31, !llvm.loop !10

39:                                               ; preds = %10
  %40 = add i64 %15, -8589934592
  %41 = ashr exact i64 %40, 32
  %42 = getelementptr inbounds [20 x i8], [20 x i8]* %4, i64 0, i64 %41
  %43 = load i8, i8* %42, align 1, !tbaa !9
  %44 = icmp eq i8 %43, 101
  br i1 %44, label %45, label %58

45:                                               ; preds = %39
  %46 = icmp slt i32 %14, 3
  br i1 %46, label %71, label %47

47:                                               ; preds = %45
  %48 = add i64 %13, 4294967294
  %49 = and i64 %48, 4294967295
  br label %50

50:                                               ; preds = %47, %50
  %51 = phi i64 [ 0, %47 ], [ %56, %50 ]
  %52 = getelementptr inbounds [20 x i8], [20 x i8]* %4, i64 0, i64 %51
  %53 = load i8, i8* %52, align 1, !tbaa !9
  %54 = sext i8 %53 to i32
  %55 = call i32 @putchar(i32 %54)
  %56 = add nuw nsw i64 %51, 1
  %57 = icmp eq i64 %56, %49
  br i1 %57, label %71, label %50, !llvm.loop !12

58:                                               ; preds = %10, %20, %39
  %59 = icmp slt i32 %14, 4
  br i1 %59, label %71, label %60

60:                                               ; preds = %58
  %61 = add i64 %13, 4294967293
  %62 = and i64 %61, 4294967295
  br label %63

63:                                               ; preds = %60, %63
  %64 = phi i64 [ 0, %60 ], [ %69, %63 ]
  %65 = getelementptr inbounds [20 x i8], [20 x i8]* %4, i64 0, i64 %64
  %66 = load i8, i8* %65, align 1, !tbaa !9
  %67 = sext i8 %66 to i32
  %68 = call i32 @putchar(i32 %67)
  %69 = add nuw nsw i64 %64, 1
  %70 = icmp eq i64 %69, %62
  br i1 %70, label %71, label %63, !llvm.loop !13

71:                                               ; preds = %50, %31, %63, %45, %26, %58
  %72 = call i32 @putchar(i32 10)
  %73 = add nuw nsw i32 %11, 1
  %74 = load i32, i32* %3, align 4, !tbaa !5
  %75 = icmp slt i32 %73, %74
  br i1 %75, label %10, label %76, !llvm.loop !14

76:                                               ; preds = %71, %2
  call void @llvm.lifetime.end.p0i8(i64 20, i8* nonnull %6) #5
  call void @llvm.lifetime.end.p0i8(i64 4, i8* nonnull %5) #5
  ret i32 0
}

; Function Attrs: argmemonly mustprogress nofree nosync nounwind willreturn
declare void @llvm.lifetime.start.p0i8(i64 immarg, i8* nocapture) #1

; Function Attrs: nofree nounwind
declare noundef i32 @__isoc99_scanf(i8* nocapture noundef readonly, ...) local_unnamed_addr #2

; Function Attrs: argmemonly mustprogress nofree nounwind readonly willreturn
declare i64 @strlen(i8* nocapture) local_unnamed_addr #3

; Function Attrs: argmemonly mustprogress nofree nosync nounwind willreturn
declare void @llvm.lifetime.end.p0i8(i64 immarg, i8* nocapture) #1

; Function Attrs: nofree nounwind
declare noundef i32 @putchar(i32 noundef) local_unnamed_addr #4


!llvm.module.flags = !{!0, !1, !2, !3}
!llvm.ident = !{!4}

!0 = !{i32 1, !"wchar_size", i32 4}
!1 = !{i32 7, !"PIC Level", i32 2}
!2 = !{i32 7, !"PIE Level", i32 2}
!3 = !{i32 7, !"uwtable", i32 1}
!4 = !{!"clang version 13.0.0"}
!5 = !{!6, !6, i64 0}
!6 = !{!"int", !7, i64 0}
!7 = !{!"omnipotent char", !8, i64 0}
!8 = !{!"Simple C/C++ TBAA"}
!9 = !{!7, !7, i64 0}
!10 = distinct !{!10, !11}
!11 = !{!"llvm.loop.mustprogress"}
!12 = distinct !{!12, !11}
!13 = distinct !{!13, !11}
!14 = distinct !{!14, !11}
